target datalayout = "e-m:e-p270:32:32-p271:32:32-p272:64:64-i64:64-i128:128-f80:128-n8:16:32:64-S128"
target triple = "x86_64-pc-linux-gnu"

%struct.SurfaceDataRasInfo = type { %struct.SurfaceDataBounds, ptr, i32, i32, i32, i32, ptr, ptr, ptr, ptr, ptr, ptr, i32, %union.anon.0 }
%struct.SurfaceDataBounds = type { i32, i32, i32, i32 }
%union.anon.0 = type { ptr, [56 x i8] }
%struct._CompositeInfo = type { i32, %union.anon.1, i32 }
%union.anon.1 = type { float }
%struct.ImageRef = type { ptr, ptr, i32, i32, i32, i32, i32, i32 }

; Function Attrs: nounwind uwtable
define hidden void @ByteBinary4BitDrawGlyphListXor(ptr noundef %0, ptr noundef %1, i32 noundef %2, i32 noundef %3, i32 noundef %4, i32 noundef %5, i32 noundef %6, i32 noundef %7, i32 noundef %8, ptr noundef %9, ptr noundef %10) #0 {
  %12 = alloca ptr, align 8
  %13 = alloca ptr, align 8
  %14 = alloca i32, align 4
  %15 = alloca i32, align 4
  %16 = alloca i32, align 4
  %17 = alloca i32, align 4
  %18 = alloca i32, align 4
  %19 = alloca i32, align 4
  %20 = alloca i32, align 4
  %21 = alloca ptr, align 8
  %22 = alloca ptr, align 8
  %23 = alloca i32, align 4
  %24 = alloca i32, align 4
  %25 = alloca i32, align 4
  %26 = alloca i32, align 4
  %27 = alloca ptr, align 8
  %28 = alloca ptr, align 8
  %29 = alloca i32, align 4
  %30 = alloca i32, align 4
  %31 = alloca i32, align 4
  %32 = alloca i32, align 4
  %33 = alloca i32, align 4
  %34 = alloca i32, align 4
  %35 = alloca i32, align 4
  %36 = alloca i32, align 4
  %37 = alloca i32, align 4
  %38 = alloca i32, align 4
  %39 = alloca i32, align 4
  %40 = alloca i32, align 4
  store ptr %0, ptr %12, align 8
  store ptr %1, ptr %13, align 8
  store i32 %2, ptr %14, align 4
  store i32 %3, ptr %15, align 4
  store i32 %4, ptr %16, align 4
  store i32 %5, ptr %17, align 4
  store i32 %6, ptr %18, align 4
  store i32 %7, ptr %19, align 4
  store i32 %8, ptr %20, align 4
  store ptr %9, ptr %21, align 8
  store ptr %10, ptr %22, align 8
  %41 = load ptr, ptr %12, align 8
  %42 = getelementptr inbounds %struct.SurfaceDataRasInfo, ptr %41, i32 0, i32 4
  %43 = load i32, ptr %42, align 8
  store i32 %43, ptr %24, align 4
  %44 = load ptr, ptr %22, align 8
  %45 = getelementptr inbounds %struct._CompositeInfo, ptr %44, i32 0, i32 1
  %46 = load i32, ptr %45, align 4
  store i32 %46, ptr %25, align 4
  %47 = load ptr, ptr %22, align 8
  %48 = getelementptr inbounds %struct._CompositeInfo, ptr %47, i32 0, i32 2
  %49 = load i32, ptr %48, align 4
  store i32 %49, ptr %26, align 4
  store i32 0, ptr %23, align 4
  br label %50

50:                                               ; preds = %254, %11
  %51 = load i32, ptr %23, align 4
  %52 = load i32, ptr %14, align 4
  %53 = icmp slt i32 %51, %52
  br i1 %53, label %54, label %257

54:                                               ; preds = %50
  %55 = load ptr, ptr %13, align 8
  %56 = load i32, ptr %23, align 4
  %57 = sext i32 %56 to i64
  %58 = getelementptr inbounds %struct.ImageRef, ptr %55, i64 %57
  %59 = getelementptr inbounds %struct.ImageRef, ptr %58, i32 0, i32 1
  %60 = load ptr, ptr %59, align 8
  store ptr %60, ptr %28, align 8
  %61 = load ptr, ptr %28, align 8
  %62 = icmp ne ptr %61, null
  br i1 %62, label %64, label %63

63:                                               ; preds = %54
  br label %254

64:                                               ; preds = %54
  %65 = load ptr, ptr %13, align 8
  %66 = load i32, ptr %23, align 4
  %67 = sext i32 %66 to i64
  %68 = getelementptr inbounds %struct.ImageRef, ptr %65, i64 %67
  %69 = getelementptr inbounds %struct.ImageRef, ptr %68, i32 0, i32 2
  %70 = load i32, ptr %69, align 8
  store i32 %70, ptr %29, align 4
  %71 = load ptr, ptr %13, align 8
  %72 = load i32, ptr %23, align 4
  %73 = sext i32 %72 to i64
  %74 = getelementptr inbounds %struct.ImageRef, ptr %71, i64 %73
  %75 = getelementptr inbounds %struct.ImageRef, ptr %74, i32 0, i32 6
  %76 = load i32, ptr %75, align 8
  store i32 %76, ptr %30, align 4
  %77 = load ptr, ptr %13, align 8
  %78 = load i32, ptr %23, align 4
  %79 = sext i32 %78 to i64
  %80 = getelementptr inbounds %struct.ImageRef, ptr %77, i64 %79
  %81 = getelementptr inbounds %struct.ImageRef, ptr %80, i32 0, i32 7
  %82 = load i32, ptr %81, align 4
  store i32 %82, ptr %31, align 4
  %83 = load ptr, ptr %13, align 8
  %84 = load i32, ptr %23, align 4
  %85 = sext i32 %84 to i64
  %86 = getelementptr inbounds %struct.ImageRef, ptr %83, i64 %85
  %87 = getelementptr inbounds %struct.ImageRef, ptr %86, i32 0, i32 4
  %88 = load i32, ptr %87, align 8
  store i32 %88, ptr %32, align 4
  %89 = load ptr, ptr %13, align 8
  %90 = load i32, ptr %23, align 4
  %91 = sext i32 %90 to i64
  %92 = getelementptr inbounds %struct.ImageRef, ptr %89, i64 %91
  %93 = getelementptr inbounds %struct.ImageRef, ptr %92, i32 0, i32 5
  %94 = load i32, ptr %93, align 4
  store i32 %94, ptr %33, align 4
  %95 = load i32, ptr %30, align 4
  %96 = load i32, ptr %32, align 4
  %97 = add nsw i32 %95, %96
  store i32 %97, ptr %34, align 4
  %98 = load i32, ptr %31, align 4
  %99 = load i32, ptr %33, align 4
  %100 = add nsw i32 %98, %99
  store i32 %100, ptr %35, align 4
  %101 = load i32, ptr %30, align 4
  %102 = load i32, ptr %17, align 4
  %103 = icmp slt i32 %101, %102
  br i1 %103, label %104, label %113

104:                                              ; preds = %64
  %105 = load i32, ptr %17, align 4
  %106 = load i32, ptr %30, align 4
  %107 = sub nsw i32 %105, %106
  %108 = mul nsw i32 %107, 1
  %109 = load ptr, ptr %28, align 8
  %110 = sext i32 %108 to i64
  %111 = getelementptr inbounds i8, ptr %109, i64 %110
  store ptr %111, ptr %28, align 8
  %112 = load i32, ptr %17, align 4
  store i32 %112, ptr %30, align 4
  br label %113

113:                                              ; preds = %104, %64
  %114 = load i32, ptr %31, align 4
  %115 = load i32, ptr %18, align 4
  %116 = icmp slt i32 %114, %115
  br i1 %116, label %117, label %127

117:                                              ; preds = %113
  %118 = load i32, ptr %18, align 4
  %119 = load i32, ptr %31, align 4
  %120 = sub nsw i32 %118, %119
  %121 = load i32, ptr %29, align 4
  %122 = mul nsw i32 %120, %121
  %123 = load ptr, ptr %28, align 8
  %124 = sext i32 %122 to i64
  %125 = getelementptr inbounds i8, ptr %123, i64 %124
  store ptr %125, ptr %28, align 8
  %126 = load i32, ptr %18, align 4
  store i32 %126, ptr %31, align 4
  br label %127

127:                                              ; preds = %117, %113
  %128 = load i32, ptr %34, align 4
  %129 = load i32, ptr %19, align 4
  %130 = icmp sgt i32 %128, %129
  br i1 %130, label %131, label %133

131:                                              ; preds = %127
  %132 = load i32, ptr %19, align 4
  store i32 %132, ptr %34, align 4
  br label %133

133:                                              ; preds = %131, %127
  %134 = load i32, ptr %35, align 4
  %135 = load i32, ptr %20, align 4
  %136 = icmp sgt i32 %134, %135
  br i1 %136, label %137, label %139

137:                                              ; preds = %133
  %138 = load i32, ptr %20, align 4
  store i32 %138, ptr %35, align 4
  br label %139

139:                                              ; preds = %137, %133
  %140 = load i32, ptr %34, align 4
  %141 = load i32, ptr %30, align 4
  %142 = icmp sle i32 %140, %141
  br i1 %142, label %147, label %143

143:                                              ; preds = %139
  %144 = load i32, ptr %35, align 4
  %145 = load i32, ptr %31, align 4
  %146 = icmp sle i32 %144, %145
  br i1 %146, label %147, label %148

147:                                              ; preds = %143, %139
  br label %254

148:                                              ; preds = %143
  %149 = load i32, ptr %34, align 4
  %150 = load i32, ptr %30, align 4
  %151 = sub nsw i32 %149, %150
  store i32 %151, ptr %32, align 4
  %152 = load i32, ptr %35, align 4
  %153 = load i32, ptr %31, align 4
  %154 = sub nsw i32 %152, %153
  store i32 %154, ptr %33, align 4
  %155 = load ptr, ptr %12, align 8
  %156 = getelementptr inbounds %struct.SurfaceDataRasInfo, ptr %155, i32 0, i32 1
  %157 = load ptr, ptr %156, align 8
  %158 = ptrtoint ptr %157 to i64
  %159 = load i32, ptr %31, align 4
  %160 = sext i32 %159 to i64
  %161 = load i32, ptr %24, align 4
  %162 = sext i32 %161 to i64
  %163 = mul nsw i64 %160, %162
  %164 = load i32, ptr %30, align 4
  %165 = sext i32 %164 to i64
  %166 = mul nsw i64 %165, 0
  %167 = add nsw i64 %163, %166
  %168 = add nsw i64 %158, %167
  %169 = inttoptr i64 %168 to ptr
  store ptr %169, ptr %27, align 8
  br label %170

170:                                              ; preds = %249, %148
  %171 = load i32, ptr %30, align 4
  %172 = load ptr, ptr %12, align 8
  %173 = getelementptr inbounds %struct.SurfaceDataRasInfo, ptr %172, i32 0, i32 2
  %174 = load i32, ptr %173, align 8
  %175 = sdiv i32 %174, 4
  %176 = add nsw i32 %171, %175
  store i32 %176, ptr %36, align 4
  %177 = load i32, ptr %36, align 4
  %178 = sdiv i32 %177, 2
  store i32 %178, ptr %37, align 4
  %179 = load i32, ptr %36, align 4
  %180 = srem i32 %179, 2
  %181 = mul nsw i32 %180, 4
  %182 = sub nsw i32 4, %181
  store i32 %182, ptr %38, align 4
  %183 = load ptr, ptr %27, align 8
  %184 = load i32, ptr %37, align 4
  %185 = sext i32 %184 to i64
  %186 = getelementptr inbounds i8, ptr %183, i64 %185
  %187 = load i8, ptr %186, align 1
  %188 = zext i8 %187 to i32
  store i32 %188, ptr %39, align 4
  store i32 0, ptr %40, align 4
  br label %189

189:                                              ; preds = %227, %170
  br label %190

190:                                              ; preds = %189
  %191 = load i32, ptr %38, align 4
  %192 = icmp slt i32 %191, 0
  br i1 %192, label %193, label %207

193:                                              ; preds = %190
  %194 = load i32, ptr %39, align 4
  %195 = trunc i32 %194 to i8
  %196 = load ptr, ptr %27, align 8
  %197 = load i32, ptr %37, align 4
  %198 = sext i32 %197 to i64
  %199 = getelementptr inbounds i8, ptr %196, i64 %198
  store i8 %195, ptr %199, align 1
  %200 = load ptr, ptr %27, align 8
  %201 = load i32, ptr %37, align 4
  %202 = add nsw i32 %201, 1
  store i32 %202, ptr %37, align 4
  %203 = sext i32 %202 to i64
  %204 = getelementptr inbounds i8, ptr %200, i64 %203
  %205 = load i8, ptr %204, align 1
  %206 = zext i8 %205 to i32
  store i32 %206, ptr %39, align 4
  store i32 4, ptr %38, align 4
  br label %207

207:                                              ; preds = %193, %190
  br label %208

208:                                              ; preds = %207
  %209 = load ptr, ptr %28, align 8
  %210 = load i32, ptr %40, align 4
  %211 = sext i32 %210 to i64
  %212 = getelementptr inbounds i8, ptr %209, i64 %211
  %213 = load i8, ptr %212, align 1
  %214 = icmp ne i8 %213, 0
  br i1 %214, label %215, label %224

215:                                              ; preds = %208
  %216 = load i32, ptr %15, align 4
  %217 = load i32, ptr %25, align 4
  %218 = xor i32 %216, %217
  %219 = and i32 %218, 15
  %220 = load i32, ptr %38, align 4
  %221 = shl i32 %219, %220
  %222 = load i32, ptr %39, align 4
  %223 = xor i32 %222, %221
  store i32 %223, ptr %39, align 4
  br label %224

224:                                              ; preds = %215, %208
  %225 = load i32, ptr %38, align 4
  %226 = sub nsw i32 %225, 4
  store i32 %226, ptr %38, align 4
  br label %227

227:                                              ; preds = %224
  %228 = load i32, ptr %40, align 4
  %229 = add nsw i32 %228, 1
  store i32 %229, ptr %40, align 4
  %230 = load i32, ptr %32, align 4
  %231 = icmp slt i32 %229, %230
  br i1 %231, label %189, label %232, !llvm.loop !27

232:                                              ; preds = %227
  %233 = load i32, ptr %39, align 4
  %234 = trunc i32 %233 to i8
  %235 = load ptr, ptr %27, align 8
  %236 = load i32, ptr %37, align 4
  %237 = sext i32 %236 to i64
  %238 = getelementptr inbounds i8, ptr %235, i64 %237
  store i8 %234, ptr %238, align 1
  %239 = load ptr, ptr %27, align 8
  %240 = ptrtoint ptr %239 to i64
  %241 = load i32, ptr %24, align 4
  %242 = sext i32 %241 to i64
  %243 = add nsw i64 %240, %242
  %244 = inttoptr i64 %243 to ptr
  store ptr %244, ptr %27, align 8
  %245 = load i32, ptr %29, align 4
  %246 = load ptr, ptr %28, align 8
  %247 = sext i32 %245 to i64
  %248 = getelementptr inbounds i8, ptr %246, i64 %247
  store ptr %248, ptr %28, align 8
  br label %249

249:                                              ; preds = %232
  %250 = load i32, ptr %33, align 4
  %251 = add nsw i32 %250, -1
  store i32 %251, ptr %33, align 4
  %252 = icmp sgt i32 %251, 0
  br i1 %252, label %170, label %253, !llvm.loop !28

253:                                              ; preds = %249
  br label %254

254:                                              ; preds = %253, %147, %63
  %255 = load i32, ptr %23, align 4
  %256 = add nsw i32 %255, 1
  store i32 %256, ptr %23, align 4
  br label %50, !llvm.loop !29

257:                                              ; preds = %50
  ret void
}