; Function Attrs: nofree norecurse nosync nounwind memory(readwrite, inaccessiblemem: none) uwtable
define hidden void @ByteBinary4BitDrawGlyphListXor(ptr nocapture noundef readonly %0, ptr nocapture noundef readonly %1, i32 noundef %2, i32 noundef %3, i32 %4, i32 noundef %5, i32 noundef %6, i32 noundef %7, i32 noundef %8, ptr nocapture readnone %9, ptr nocapture noundef readonly %10) #0 {
  %12 = icmp sgt i32 %2, 0
  br i1 %12, label %.lr.ph, label %._crit_edge

.lr.ph:                                           ; preds = %11
  %13 = getelementptr inbounds i8, ptr %10, i64 4
  %14 = load i32, ptr %13, align 4
  %15 = getelementptr inbounds i8, ptr %0, i64 32
  %16 = load i32, ptr %15, align 8
  %17 = getelementptr inbounds i8, ptr %0, i64 16
  %18 = sext i32 %16 to i64
  %19 = getelementptr inbounds i8, ptr %0, i64 24
  %20 = xor i32 %14, %3
  %21 = and i32 %20, 15
  %wide.trip.count119 = zext nneg i32 %2 to i64
  br label %22

22:                                               ; preds = %.lr.ph, %.loopexit
  %indvars.iv116 = phi i64 [ 0, %.lr.ph ], [ %indvars.iv.next117, %.loopexit ]
  %23 = getelementptr inbounds %struct.ImageRef, ptr %1, i64 %indvars.iv116
  %24 = getelementptr inbounds i8, ptr %23, i64 8
  %25 = load ptr, ptr %24, align 8
  %.not = icmp eq ptr %25, null
  br i1 %.not, label %.loopexit, label %26

26:                                               ; preds = %22
  %27 = getelementptr inbounds i8, ptr %23, i64 32
  %28 = load i32, ptr %27, align 8
  %29 = getelementptr inbounds i8, ptr %23, i64 36
  %30 = load i32, ptr %29, align 4
  %31 = getelementptr inbounds i8, ptr %23, i64 24
  %32 = load i32, ptr %31, align 8
  %33 = getelementptr inbounds i8, ptr %23, i64 28
  %34 = load i32, ptr %33, align 4
  %35 = add nsw i32 %32, %28
  %36 = add nsw i32 %34, %30
  %.092 = tail call i32 @llvm.smax.i32(i32 %28, i32 %5)
  %.091 = tail call i32 @llvm.smax.i32(i32 %30, i32 %6)
  %.089 = tail call i32 @llvm.smin.i32(i32 %35, i32 %7)
  %.088 = tail call i32 @llvm.smin.i32(i32 %36, i32 %8)
  %.not110 = icmp sgt i32 %.089, %.092
  %.not111 = icmp sgt i32 %.088, %.091
  %or.cond = select i1 %.not110, i1 %.not111, i1 false
  br i1 %or.cond, label %37, label %.loopexit

37:                                               ; preds = %26
  %38 = getelementptr inbounds i8, ptr %23, i64 16
  %39 = load i32, ptr %38, align 8
  %40 = icmp slt i32 %30, %6
  %41 = icmp slt i32 %28, %5
  %42 = sub nsw i32 %5, %28
  %narrow = select i1 %41, i32 %42, i32 0
  %.094.idx = sext i32 %narrow to i64
  %.094 = getelementptr inbounds i8, ptr %25, i64 %.094.idx
  %43 = sub nsw i32 %6, %30
  %44 = mul nsw i32 %43, %39
  %narrow113 = select i1 %40, i32 %44, i32 0
  %.195.idx = sext i32 %narrow113 to i64
  %.195 = getelementptr inbounds i8, ptr %.094, i64 %.195.idx
  %45 = sub i32 %.089, %.092
  %46 = sub nsw i32 %.088, %.091
  %47 = load ptr, ptr %17, align 8
  %48 = ptrtoint ptr %47 to i64
  %49 = sext i32 %.091 to i64
  %50 = mul nsw i64 %49, %18
  %51 = add nsw i64 %50, %48
  %52 = sext i32 %39 to i64
  %smax = tail call i32 @llvm.smax.i32(i32 %45, i32 1)
  %wide.trip.count = zext nneg i32 %smax to i64
  br label %53

53:                                               ; preds = %82, %37
  %.296 = phi ptr [ %.195, %37 ], [ %87, %82 ]
  %.093.in = phi i64 [ %51, %37 ], [ %86, %82 ]
  %.090 = phi i32 [ %46, %37 ], [ %88, %82 ]
  %.093 = inttoptr i64 %.093.in to ptr
  %54 = load i32, ptr %19, align 8
  %55 = sdiv i32 %54, 4
  %56 = add nsw i32 %55, %.092
  %57 = sdiv i32 %56, 2
  %58 = srem i32 %56, 2
  %59 = shl nsw i32 %58, 2
  %60 = sub nsw i32 4, %59
  %61 = sext i32 %57 to i64
  %62 = getelementptr inbounds i8, ptr %.093, i64 %61
  %63 = load i8, ptr %62, align 1
  %64 = zext i8 %63 to i32
  br label %65

65:                                               ; preds = %76, %53
  %indvars.iv = phi i64 [ %indvars.iv.next, %76 ], [ 0, %53 ]
  %.085 = phi i32 [ %.186, %76 ], [ %57, %53 ]
  %.083 = phi i32 [ %81, %76 ], [ %60, %53 ]
  %.082 = phi i32 [ %.2, %76 ], [ %64, %53 ]
  %66 = icmp slt i32 %.083, 0
  br i1 %66, label %67, label %76

67:                                               ; preds = %65
  %68 = trunc i32 %.082 to i8
  %69 = sext i32 %.085 to i64
  %70 = getelementptr inbounds i8, ptr %.093, i64 %69
  store i8 %68, ptr %70, align 1
  %71 = add nsw i32 %.085, 1
  %72 = sext i32 %71 to i64
  %73 = getelementptr inbounds i8, ptr %.093, i64 %72
  %74 = load i8, ptr %73, align 1
  %75 = zext i8 %74 to i32
  br label %76

76:                                               ; preds = %65, %67
  %.186 = phi i32 [ %71, %67 ], [ %.085, %65 ]
  %.184 = phi i32 [ 4, %67 ], [ %.083, %65 ]
  %.1 = phi i32 [ %75, %67 ], [ %.082, %65 ]
  %77 = getelementptr inbounds i8, ptr %.296, i64 %indvars.iv
  %78 = load i8, ptr %77, align 1
  %.not112 = icmp eq i8 %78, 0
  %79 = shl nuw nsw i32 %21, %.184
  %80 = select i1 %.not112, i32 0, i32 %79
  %.2 = xor i32 %80, %.1
  %81 = add nsw i32 %.184, -4
  %indvars.iv.next = add nuw nsw i64 %indvars.iv, 1
  %exitcond.not = icmp eq i64 %indvars.iv.next, %wide.trip.count
  br i1 %exitcond.not, label %82, label %65, !llvm.loop !27

82:                                               ; preds = %76
  %83 = trunc i32 %.2 to i8
  %84 = sext i32 %.186 to i64
  %85 = getelementptr inbounds i8, ptr %.093, i64 %84
  store i8 %83, ptr %85, align 1
  %86 = add nsw i64 %.093.in, %18
  %87 = getelementptr inbounds i8, ptr %.296, i64 %52
  %88 = add nsw i32 %.090, -1
  %89 = icmp sgt i32 %.090, 1
  br i1 %89, label %53, label %.loopexit, !llvm.loop !28

.loopexit:                                        ; preds = %82, %26, %22
  %indvars.iv.next117 = add nuw nsw i64 %indvars.iv116, 1
  %exitcond120.not = icmp eq i64 %indvars.iv.next117, %wide.trip.count119
  br i1 %exitcond120.not, label %._crit_edge, label %22, !llvm.loop !29

._crit_edge:                                      ; preds = %.loopexit, %11
  ret void
}